target datalayout = "e-m:e-p270:32:32-p271:32:32-p272:64:64-i64:64-i128:128-f80:128-n8:16:32:64-S128"
target triple = "x86_64-pc-linux-gnu"

%struct.Nwk_Man_t_ = type { ptr, ptr, ptr, ptr, ptr, [5 x i32], i32, ptr, ptr, ptr, ptr, ptr, i32, i32, i32, i32, i32 }
%struct.Nwk_Obj_t_ = type { ptr, ptr, ptr, %union.anon, i32, i32, i32, i32, float, float, float, i32, i32, i32, ptr }
%union.anon = type { ptr }
%struct.Vec_Ptr_t_ = type { i32, i32, ptr }

@.str.9 = private unnamed_addr constant [65 x i8] c"Object %6d: Mismatch betweeh levels: Actual = %d. Correct = %d.\0A\00", align 1

; Function Attrs: inlinehint nounwind uwtable
define internal i32 @Nwk_ObjLevel(ptr noundef %0) #2 {
  %2 = alloca ptr, align 8
  store ptr %0, ptr %2, align 8, !tbaa !18
  %3 = load ptr, ptr %2, align 8, !tbaa !18
  %4 = getelementptr inbounds nuw %struct.Nwk_Obj_t_, ptr %3, i32 0, i32 7
  %5 = load i32, ptr %4, align 4, !tbaa !78
  ret i32 %5
}

; Function Attrs: inlinehint nounwind uwtable
define internal ptr @Vec_PtrEntry(ptr noundef %0, i32 noundef %1) #2 {
  %3 = alloca ptr, align 8
  %4 = alloca i32, align 4
  store ptr %0, ptr %3, align 8, !tbaa !29
  store i32 %1, ptr %4, align 4, !tbaa !8
  %5 = load ptr, ptr %3, align 8, !tbaa !29
  %6 = getelementptr inbounds nuw %struct.Vec_Ptr_t_, ptr %5, i32 0, i32 2
  %7 = load ptr, ptr %6, align 8, !tbaa !32
  %8 = load i32, ptr %4, align 4, !tbaa !8
  %9 = sext i32 %8 to i64
  %10 = getelementptr inbounds ptr, ptr %7, i64 %9
  %11 = load ptr, ptr %10, align 8, !tbaa !33
  ret ptr %11
}

; Function Attrs: inlinehint nounwind uwtable
define internal i32 @Vec_PtrSize(ptr noundef %0) #2 {
  %2 = alloca ptr, align 8
  store ptr %0, ptr %2, align 8, !tbaa !29
  %3 = load ptr, ptr %2, align 8, !tbaa !29
  %4 = getelementptr inbounds nuw %struct.Vec_Ptr_t_, ptr %3, i32 0, i32 1
  %5 = load i32, ptr %4, align 4, !tbaa !30
  ret i32 %5
}

; Function Attrs: nounwind uwtable
define i32 @Nwk_ManVerifyLevel(ptr noundef %0) #0 {
  %2 = alloca ptr, align 8
  %3 = alloca ptr, align 8
  %4 = alloca i32, align 4
  %5 = alloca i32, align 4
  store ptr %0, ptr %2, align 8, !tbaa !3
  call void @llvm.lifetime.start.p0(i64 8, ptr %3) #8
  call void @llvm.lifetime.start.p0(i64 4, ptr %4) #8
  call void @llvm.lifetime.start.p0(i64 4, ptr %5) #8
  store i32 0, ptr %5, align 4, !tbaa !8
  br label %6

6:                                                ; preds = %40, %1
  %7 = load i32, ptr %5, align 4, !tbaa !8
  %8 = load ptr, ptr %2, align 8, !tbaa !3
  %9 = getelementptr inbounds nuw %struct.Nwk_Man_t_, ptr %8, i32 0, i32 4
  %10 = load ptr, ptr %9, align 8, !tbaa !10
  %11 = call i32 @Vec_PtrSize(ptr noundef %10)
  %12 = icmp slt i32 %7, %11
  br i1 %12, label %13, label %19

13:                                               ; preds = %6
  %14 = load ptr, ptr %2, align 8, !tbaa !3
  %15 = getelementptr inbounds nuw %struct.Nwk_Man_t_, ptr %14, i32 0, i32 4
  %16 = load ptr, ptr %15, align 8, !tbaa !10
  %17 = load i32, ptr %5, align 4, !tbaa !8
  %18 = call ptr @Vec_PtrEntry(ptr noundef %16, i32 noundef %17)
  store ptr %18, ptr %3, align 8, !tbaa !18
  br label %19

19:                                               ; preds = %13, %6
  %20 = phi i1 [ false, %6 ], [ true, %13 ]
  br i1 %20, label %21, label %43

21:                                               ; preds = %19
  %22 = load ptr, ptr %3, align 8, !tbaa !18
  %23 = icmp eq ptr %22, null
  br i1 %23, label %24, label %25

24:                                               ; preds = %21
  br label %39

25:                                               ; preds = %21
  %26 = load ptr, ptr %3, align 8, !tbaa !18
  %27 = call i32 @Nwk_ObjLevelNew(ptr noundef %26)
  store i32 %27, ptr %4, align 4, !tbaa !8
  %28 = load ptr, ptr %3, align 8, !tbaa !18
  %29 = call i32 @Nwk_ObjLevel(ptr noundef %28)
  %30 = load i32, ptr %4, align 4, !tbaa !8
  %31 = icmp ne i32 %29, %30
  br i1 %31, label %32, label %38

32:                                               ; preds = %25
  %33 = load i32, ptr %5, align 4, !tbaa !8
  %34 = load ptr, ptr %3, align 8, !tbaa !18
  %35 = call i32 @Nwk_ObjLevel(ptr noundef %34)
  %36 = load i32, ptr %4, align 4, !tbaa !8
  %37 = call i32 (ptr, ...) @printf(ptr noundef @.str.9, i32 noundef %33, i32 noundef %35, i32 noundef %36)
  br label %38

38:                                               ; preds = %32, %25
  br label %39

39:                                               ; preds = %38, %24
  br label %40

40:                                               ; preds = %39
  %41 = load i32, ptr %5, align 4, !tbaa !8
  %42 = add nsw i32 %41, 1
  store i32 %42, ptr %5, align 4, !tbaa !8
  br label %6, !llvm.loop !94

43:                                               ; preds = %19
  call void @llvm.lifetime.end.p0(i64 4, ptr %5) #8
  call void @llvm.lifetime.end.p0(i64 4, ptr %4) #8
  call void @llvm.lifetime.end.p0(i64 8, ptr %3) #8
  ret i32 1
}