; Function Attrs: nounwind uwtable
define noundef i32 @Nwk_ManVerifyLevel(ptr noundef readonly captures(none) %0) local_unnamed_addr #4 {
  %2 = getelementptr inbounds nuw i8, ptr %0, i64 32
  %3 = load ptr, ptr %2, align 8, !tbaa !3
  %4 = getelementptr i8, ptr %3, i64 4
  %.val16 = load i32, ptr %4, align 4, !tbaa !15
  %5 = icmp sgt i32 %.val16, 0
  br i1 %5, label %.lr.ph, label %.critedge

.lr.ph:                                           ; preds = %1, %17
  %indvars.iv = phi i64 [ %indvars.iv.next, %17 ], [ 0, %1 ]
  %6 = phi ptr [ %18, %17 ], [ %3, %1 ]
  %7 = getelementptr i8, ptr %6, i64 8
  %.val13 = load ptr, ptr %7, align 8, !tbaa !17
  %8 = getelementptr inbounds nuw ptr, ptr %.val13, i64 %indvars.iv
  %9 = load ptr, ptr %8, align 8, !tbaa !18
  %10 = icmp eq ptr %9, null
  br i1 %10, label %17, label %11

11:                                               ; preds = %.lr.ph
  %12 = tail call i32 @Nwk_ObjLevelNew(ptr noundef nonnull %9)
  %13 = getelementptr i8, ptr %9, i64 44
  %.val15 = load i32, ptr %13, align 4, !tbaa !68
  %.not = icmp eq i32 %.val15, %12
  br i1 %.not, label %17, label %14

14:                                               ; preds = %11
  %15 = trunc nuw nsw i64 %indvars.iv to i32
  %16 = tail call i32 (ptr, ...) @printf(ptr noundef nonnull dereferenceable(1) @.str.9, i32 noundef %15, i32 noundef %.val15, i32 noundef %12)
  br label %17

17:                                               ; preds = %.lr.ph, %14, %11
  %indvars.iv.next = add nuw nsw i64 %indvars.iv, 1
  %18 = load ptr, ptr %2, align 8, !tbaa !3
  %19 = getelementptr i8, ptr %18, i64 4
  %.val = load i32, ptr %19, align 4, !tbaa !15
  %20 = sext i32 %.val to i64
  %21 = icmp slt i64 %indvars.iv.next, %20
  br i1 %21, label %.lr.ph, label %.critedge, !llvm.loop !84

.critedge:                                        ; preds = %17, %1
  ret i32 1
}